target datalayout = "e-m:e-p270:32:32-p271:32:32-p272:64:64-i64:64-i128:128-f80:128-n8:16:32:64-S128"
target triple = "x86_64-pc-linux-gnu"

%struct._cms_typehandler_struct = type { i32, ptr, ptr, ptr, ptr, ptr, i32 }
%struct.cmsCIExyYTRIPLE = type { %struct.cmsCIExyY, %struct.cmsCIExyY, %struct.cmsCIExyY }
%struct.cmsCIExyY = type { double, double, double }

; Function Attrs: nounwind uwtable
define internal ptr @Type_Chromaticity_Read(ptr noundef %0, ptr noundef %1, ptr noundef %2, i32 noundef %3) #0 {
  %5 = alloca ptr, align 8
  %6 = alloca ptr, align 8
  %7 = alloca ptr, align 8
  %8 = alloca ptr, align 8
  %9 = alloca i32, align 4
  %10 = alloca ptr, align 8
  %11 = alloca i16, align 2
  %12 = alloca i16, align 2
  store ptr %0, ptr %6, align 8
  store ptr %1, ptr %7, align 8
  store ptr %2, ptr %8, align 8
  store i32 %3, ptr %9, align 4
  %13 = load ptr, ptr %8, align 8
  store i32 0, ptr %13, align 4
  %14 = load ptr, ptr %6, align 8
  %15 = getelementptr inbounds %struct._cms_typehandler_struct, ptr %14, i32 0, i32 5
  %16 = load ptr, ptr %15, align 8
  %17 = call ptr @_cmsMallocZero(ptr noundef %16, i32 noundef 72)
  store ptr %17, ptr %10, align 8
  %18 = load ptr, ptr %10, align 8
  %19 = icmp eq ptr %18, null
  br i1 %19, label %20, label %21

20:                                               ; preds = %4
  store ptr null, ptr %5, align 8
  br label %119

21:                                               ; preds = %4
  %22 = load ptr, ptr %7, align 8
  %23 = call i32 @_cmsReadUInt16Number(ptr noundef %22, ptr noundef %11)
  %24 = icmp ne i32 %23, 0
  br i1 %24, label %26, label %25

25:                                               ; preds = %21
  br label %114

26:                                               ; preds = %21
  %27 = load i16, ptr %11, align 2
  %28 = zext i16 %27 to i32
  %29 = icmp eq i32 %28, 0
  br i1 %29, label %30, label %44

30:                                               ; preds = %26
  %31 = load i32, ptr %9, align 4
  %32 = icmp eq i32 %31, 32
  br i1 %32, label %33, label %44

33:                                               ; preds = %30
  %34 = load ptr, ptr %7, align 8
  %35 = call i32 @_cmsReadUInt16Number(ptr noundef %34, ptr noundef null)
  %36 = icmp ne i32 %35, 0
  br i1 %36, label %38, label %37

37:                                               ; preds = %33
  br label %114

38:                                               ; preds = %33
  %39 = load ptr, ptr %7, align 8
  %40 = call i32 @_cmsReadUInt16Number(ptr noundef %39, ptr noundef %11)
  %41 = icmp ne i32 %40, 0
  br i1 %41, label %43, label %42

42:                                               ; preds = %38
  br label %114

43:                                               ; preds = %38
  br label %44

44:                                               ; preds = %43, %30, %26
  %45 = load i16, ptr %11, align 2
  %46 = zext i16 %45 to i32
  %47 = icmp ne i32 %46, 3
  br i1 %47, label %48, label %49

48:                                               ; preds = %44
  br label %114

49:                                               ; preds = %44
  %50 = load ptr, ptr %7, align 8
  %51 = call i32 @_cmsReadUInt16Number(ptr noundef %50, ptr noundef %12)
  %52 = icmp ne i32 %51, 0
  br i1 %52, label %54, label %53

53:                                               ; preds = %49
  br label %114

54:                                               ; preds = %49
  %55 = load ptr, ptr %7, align 8
  %56 = load ptr, ptr %10, align 8
  %57 = getelementptr inbounds %struct.cmsCIExyYTRIPLE, ptr %56, i32 0, i32 0
  %58 = getelementptr inbounds %struct.cmsCIExyY, ptr %57, i32 0, i32 0
  %59 = call i32 @_cmsRead15Fixed16Number(ptr noundef %55, ptr noundef %58)
  %60 = icmp ne i32 %59, 0
  br i1 %60, label %62, label %61

61:                                               ; preds = %54
  br label %114

62:                                               ; preds = %54
  %63 = load ptr, ptr %7, align 8
  %64 = load ptr, ptr %10, align 8
  %65 = getelementptr inbounds %struct.cmsCIExyYTRIPLE, ptr %64, i32 0, i32 0
  %66 = getelementptr inbounds %struct.cmsCIExyY, ptr %65, i32 0, i32 1
  %67 = call i32 @_cmsRead15Fixed16Number(ptr noundef %63, ptr noundef %66)
  %68 = icmp ne i32 %67, 0
  br i1 %68, label %70, label %69

69:                                               ; preds = %62
  br label %114

70:                                               ; preds = %62
  %71 = load ptr, ptr %10, align 8
  %72 = getelementptr inbounds %struct.cmsCIExyYTRIPLE, ptr %71, i32 0, i32 0
  %73 = getelementptr inbounds %struct.cmsCIExyY, ptr %72, i32 0, i32 2
  store double 1.000000e+00, ptr %73, align 8
  %74 = load ptr, ptr %7, align 8
  %75 = load ptr, ptr %10, align 8
  %76 = getelementptr inbounds %struct.cmsCIExyYTRIPLE, ptr %75, i32 0, i32 1
  %77 = getelementptr inbounds %struct.cmsCIExyY, ptr %76, i32 0, i32 0
  %78 = call i32 @_cmsRead15Fixed16Number(ptr noundef %74, ptr noundef %77)
  %79 = icmp ne i32 %78, 0
  br i1 %79, label %81, label %80

80:                                               ; preds = %70
  br label %114

81:                                               ; preds = %70
  %82 = load ptr, ptr %7, align 8
  %83 = load ptr, ptr %10, align 8
  %84 = getelementptr inbounds %struct.cmsCIExyYTRIPLE, ptr %83, i32 0, i32 1
  %85 = getelementptr inbounds %struct.cmsCIExyY, ptr %84, i32 0, i32 1
  %86 = call i32 @_cmsRead15Fixed16Number(ptr noundef %82, ptr noundef %85)
  %87 = icmp ne i32 %86, 0
  br i1 %87, label %89, label %88

88:                                               ; preds = %81
  br label %114

89:                                               ; preds = %81
  %90 = load ptr, ptr %10, align 8
  %91 = getelementptr inbounds %struct.cmsCIExyYTRIPLE, ptr %90, i32 0, i32 1
  %92 = getelementptr inbounds %struct.cmsCIExyY, ptr %91, i32 0, i32 2
  store double 1.000000e+00, ptr %92, align 8
  %93 = load ptr, ptr %7, align 8
  %94 = load ptr, ptr %10, align 8
  %95 = getelementptr inbounds %struct.cmsCIExyYTRIPLE, ptr %94, i32 0, i32 2
  %96 = getelementptr inbounds %struct.cmsCIExyY, ptr %95, i32 0, i32 0
  %97 = call i32 @_cmsRead15Fixed16Number(ptr noundef %93, ptr noundef %96)
  %98 = icmp ne i32 %97, 0
  br i1 %98, label %100, label %99

99:                                               ; preds = %89
  br label %114

100:                                              ; preds = %89
  %101 = load ptr, ptr %7, align 8
  %102 = load ptr, ptr %10, align 8
  %103 = getelementptr inbounds %struct.cmsCIExyYTRIPLE, ptr %102, i32 0, i32 2
  %104 = getelementptr inbounds %struct.cmsCIExyY, ptr %103, i32 0, i32 1
  %105 = call i32 @_cmsRead15Fixed16Number(ptr noundef %101, ptr noundef %104)
  %106 = icmp ne i32 %105, 0
  br i1 %106, label %108, label %107

107:                                              ; preds = %100
  br label %114

108:                                              ; preds = %100
  %109 = load ptr, ptr %10, align 8
  %110 = getelementptr inbounds %struct.cmsCIExyYTRIPLE, ptr %109, i32 0, i32 2
  %111 = getelementptr inbounds %struct.cmsCIExyY, ptr %110, i32 0, i32 2
  store double 1.000000e+00, ptr %111, align 8
  %112 = load ptr, ptr %8, align 8
  store i32 1, ptr %112, align 4
  %113 = load ptr, ptr %10, align 8
  store ptr %113, ptr %5, align 8
  br label %119

114:                                              ; preds = %107, %99, %88, %80, %69, %61, %53, %48, %42, %37, %25
  %115 = load ptr, ptr %6, align 8
  %116 = getelementptr inbounds %struct._cms_typehandler_struct, ptr %115, i32 0, i32 5
  %117 = load ptr, ptr %116, align 8
  %118 = load ptr, ptr %10, align 8
  call void @_cmsFree(ptr noundef %117, ptr noundef %118)
  store ptr null, ptr %5, align 8
  br label %119

119:                                              ; preds = %114, %108, %20
  %120 = load ptr, ptr %5, align 8
  ret ptr %120
}