; Function Attrs: nounwind uwtable
define internal ptr @Type_Chromaticity_Read(ptr nocapture noundef readonly %0, ptr noundef %1, ptr nocapture noundef writeonly %2, i32 noundef %3) #0 {
  %5 = alloca i16, align 2
  %6 = alloca i16, align 2
  store i32 0, ptr %2, align 4
  %7 = getelementptr inbounds i8, ptr %0, i64 40
  %8 = load ptr, ptr %7, align 8
  %9 = tail call ptr @_cmsMallocZero(ptr noundef %8, i32 noundef 72) #13
  %10 = icmp eq ptr %9, null
  br i1 %10, label %50, label %11

11:                                               ; preds = %4
  %12 = call i32 @_cmsReadUInt16Number(ptr noundef %1, ptr noundef nonnull %5) #13
  %.not = icmp eq i32 %12, 0
  br i1 %.not, label %48, label %13

13:                                               ; preds = %11
  %14 = load i16, ptr %5, align 2
  %15 = icmp eq i16 %14, 0
  %16 = icmp eq i32 %3, 32
  %or.cond = and i1 %16, %15
  br i1 %or.cond, label %17, label %24

17:                                               ; preds = %13
  %18 = call i32 @_cmsReadUInt16Number(ptr noundef %1, ptr noundef null) #13
  %.not32 = icmp eq i32 %18, 0
  br i1 %.not32, label %48, label %19

19:                                               ; preds = %17
  %20 = call i32 @_cmsReadUInt16Number(ptr noundef %1, ptr noundef nonnull %5) #13
  %21 = icmp eq i32 %20, 0
  %22 = load i16, ptr %5, align 2
  %23 = icmp ne i16 %22, 3
  %or.cond4 = select i1 %21, i1 true, i1 %23
  br i1 %or.cond4, label %48, label %25

24:                                               ; preds = %13
  %.old3.not = icmp eq i16 %14, 3
  br i1 %.old3.not, label %25, label %48

25:                                               ; preds = %19, %24
  %26 = call i32 @_cmsReadUInt16Number(ptr noundef %1, ptr noundef nonnull %6) #13
  %.not33 = icmp eq i32 %26, 0
  br i1 %.not33, label %48, label %27

27:                                               ; preds = %25
  %28 = call i32 @_cmsRead15Fixed16Number(ptr noundef %1, ptr noundef nonnull %9) #13
  %.not34 = icmp eq i32 %28, 0
  br i1 %.not34, label %48, label %29

29:                                               ; preds = %27
  %30 = getelementptr inbounds i8, ptr %9, i64 8
  %31 = call i32 @_cmsRead15Fixed16Number(ptr noundef %1, ptr noundef nonnull %30) #13
  %.not35 = icmp eq i32 %31, 0
  br i1 %.not35, label %48, label %32

32:                                               ; preds = %29
  %33 = getelementptr inbounds i8, ptr %9, i64 16
  store double 1.000000e+00, ptr %33, align 8
  %34 = getelementptr inbounds i8, ptr %9, i64 24
  %35 = call i32 @_cmsRead15Fixed16Number(ptr noundef %1, ptr noundef nonnull %34) #13
  %.not36 = icmp eq i32 %35, 0
  br i1 %.not36, label %48, label %36

36:                                               ; preds = %32
  %37 = getelementptr inbounds i8, ptr %9, i64 32
  %38 = call i32 @_cmsRead15Fixed16Number(ptr noundef %1, ptr noundef nonnull %37) #13
  %.not37 = icmp eq i32 %38, 0
  br i1 %.not37, label %48, label %39

39:                                               ; preds = %36
  %40 = getelementptr inbounds i8, ptr %9, i64 40
  store double 1.000000e+00, ptr %40, align 8
  %41 = getelementptr inbounds i8, ptr %9, i64 48
  %42 = call i32 @_cmsRead15Fixed16Number(ptr noundef %1, ptr noundef nonnull %41) #13
  %.not38 = icmp eq i32 %42, 0
  br i1 %.not38, label %48, label %43

43:                                               ; preds = %39
  %44 = getelementptr inbounds i8, ptr %9, i64 56
  %45 = call i32 @_cmsRead15Fixed16Number(ptr noundef %1, ptr noundef nonnull %44) #13
  %.not39 = icmp eq i32 %45, 0
  br i1 %.not39, label %48, label %46

46:                                               ; preds = %43
  %47 = getelementptr inbounds i8, ptr %9, i64 64
  store double 1.000000e+00, ptr %47, align 8
  store i32 1, ptr %2, align 4
  br label %50

48:                                               ; preds = %43, %39, %36, %32, %29, %27, %25, %24, %19, %17, %11
  %49 = load ptr, ptr %7, align 8
  call void @_cmsFree(ptr noundef %49, ptr noundef nonnull %9) #13
  br label %50

50:                                               ; preds = %4, %48, %46
  %.0 = phi ptr [ null, %48 ], [ %9, %46 ], [ null, %4 ]
  ret ptr %.0
}